target datalayout = "e-m:e-p270:32:32-p271:32:32-p272:64:64-i64:64-i128:128-f80:128-n8:16:32:64-S128"
target triple = "x86_64-unknown-linux-gnu"

%"class.icu_75::numparse::impl::AffixPatternMatcherBuilder" = type { %"class.icu_75::number::impl::TokenConsumer", %"class.icu_75::numparse::impl::MutableMatcherCollection", %"class.icu_75::MaybeStackArray.0", i32, i32, ptr, ptr, ptr }
%"class.icu_75::number::impl::TokenConsumer" = type { ptr }
%"class.icu_75::numparse::impl::MutableMatcherCollection" = type { ptr }
%"class.icu_75::MaybeStackArray.0" = type { ptr, i32, i8, [3 x ptr] }
%"class.icu_75::numparse::impl::NumberParseMatcher" = type { ptr }
%"class.icu_75::numparse::impl::AffixPatternMatcher" = type { %"class.icu_75::numparse::impl::ArraySeriesMatcher.base", [4 x i8], %"class.icu_75::numparse::impl::CompactUnicodeString" }
%"class.icu_75::numparse::impl::ArraySeriesMatcher.base" = type <{ %"class.icu_75::numparse::impl::SeriesMatcher", %"class.icu_75::MaybeStackArray.0", i32 }>
%"class.icu_75::numparse::impl::SeriesMatcher" = type { %"class.icu_75::numparse::impl::CompositionMatcher" }
%"class.icu_75::numparse::impl::CompositionMatcher" = type { %"class.icu_75::numparse::impl::NumberParseMatcher" }
%"class.icu_75::numparse::impl::CompactUnicodeString" = type { %"class.icu_75::MaybeStackArray.3" }
%"class.icu_75::MaybeStackArray.3" = type <{ ptr, i32, i8, i8, [4 x i16], [2 x i8] }>

; Function Attrs: mustprogress uwtable
define void @_ZN6icu_758numparse4impl26AffixPatternMatcherBuilder5buildER10UErrorCode(ptr noalias sret(%"class.icu_75::numparse::impl::AffixPatternMatcher") align 8 %agg.result, ptr noundef nonnull align 8 dereferenceable(88) %this, ptr noundef nonnull align 4 dereferenceable(4) %status) #1 align 2 {
entry:
  %result.ptr = alloca ptr, align 8
  %this.addr = alloca ptr, align 8
  %status.addr = alloca ptr, align 8
  store ptr %agg.result, ptr %result.ptr, align 8
  store ptr %this, ptr %this.addr, align 8
  store ptr %status, ptr %status.addr, align 8
  %this1 = load ptr, ptr %this.addr, align 8
  %fMatchers = getelementptr inbounds %"class.icu_75::numparse::impl::AffixPatternMatcherBuilder", ptr %this1, i32 0, i32 2
  %fMatchersLen = getelementptr inbounds %"class.icu_75::numparse::impl::AffixPatternMatcherBuilder", ptr %this1, i32 0, i32 3
  %0 = load i32, ptr %fMatchersLen, align 8
  %fPattern = getelementptr inbounds %"class.icu_75::numparse::impl::AffixPatternMatcherBuilder", ptr %this1, i32 0, i32 5
  %1 = load ptr, ptr %fPattern, align 8
  %2 = load ptr, ptr %status.addr, align 8
  call void @_ZN6icu_758numparse4impl19AffixPatternMatcherC1ERNS_15MaybeStackArrayIPKNS1_18NumberParseMatcherELi3EEEiRKNS_13UnicodeStringER10UErrorCode(ptr noundef nonnull align 8 dereferenceable(80) %agg.result, ptr noundef nonnull align 8 dereferenceable(40) %fMatchers, i32 noundef %0, ptr noundef nonnull align 8 dereferenceable(64) %1, ptr noundef nonnull align 4 dereferenceable(4) %2)
  ret void
}