; Function Attrs: mustprogress uwtable
define void @_ZN6icu_758numparse4impl26AffixPatternMatcherBuilder5buildER10UErrorCode(ptr noalias sret(%"class.icu_75::numparse::impl::AffixPatternMatcher") align 8 %agg.result, ptr noundef nonnull align 8 dereferenceable(88) %this, ptr noundef nonnull align 4 dereferenceable(4) %status) local_unnamed_addr #1 align 2 {
entry:
  %fMatchers = getelementptr inbounds i8, ptr %this, i64 16
  %fMatchersLen = getelementptr inbounds i8, ptr %this, i64 56
  %0 = load i32, ptr %fMatchersLen, align 8
  %fPattern = getelementptr inbounds i8, ptr %this, i64 64
  %1 = load ptr, ptr %fPattern, align 8
  tail call void @_ZN6icu_758numparse4impl19AffixPatternMatcherC1ERNS_15MaybeStackArrayIPKNS1_18NumberParseMatcherELi3EEEiRKNS_13UnicodeStringER10UErrorCode(ptr noundef nonnull align 8 dereferenceable(80) %agg.result, ptr noundef nonnull align 8 dereferenceable(40) %fMatchers, i32 noundef %0, ptr noundef nonnull align 8 dereferenceable(64) %1, ptr noundef nonnull align 4 dereferenceable(4) %status)
  ret void
}